target datalayout = "e-m:e-p270:32:32-p271:32:32-p272:64:64-i64:64-i128:128-f80:128-n8:16:32:64-S128"
target triple = "x86_64-pc-linux-gnu"

; Function Attrs: mustprogress uwtable
define hidden void @_ZN4ncnn15kanna_rotate_c2EPKhiiPhiii(ptr noundef %0, i32 noundef %1, i32 noundef %2, ptr noundef %3, i32 noundef %4, i32 noundef %5, i32 noundef %6) #0 {
  %8 = alloca ptr, align 8
  %9 = alloca i32, align 4
  %10 = alloca i32, align 4
  %11 = alloca ptr, align 8
  %12 = alloca i32, align 4
  %13 = alloca i32, align 4
  %14 = alloca i32, align 4
  store ptr %0, ptr %8, align 8, !tbaa !4
  store i32 %1, ptr %9, align 4, !tbaa !9
  store i32 %2, ptr %10, align 4, !tbaa !9
  store ptr %3, ptr %11, align 8, !tbaa !4
  store i32 %4, ptr %12, align 4, !tbaa !9
  store i32 %5, ptr %13, align 4, !tbaa !9
  store i32 %6, ptr %14, align 4, !tbaa !9
  %15 = load ptr, ptr %8, align 8, !tbaa !4
  %16 = load i32, ptr %9, align 4, !tbaa !9
  %17 = load i32, ptr %10, align 4, !tbaa !9
  %18 = load i32, ptr %9, align 4, !tbaa !9
  %19 = mul nsw i32 %18, 2
  %20 = load ptr, ptr %11, align 8, !tbaa !4
  %21 = load i32, ptr %12, align 4, !tbaa !9
  %22 = load i32, ptr %13, align 4, !tbaa !9
  %23 = load i32, ptr %12, align 4, !tbaa !9
  %24 = mul nsw i32 %23, 2
  %25 = load i32, ptr %14, align 4, !tbaa !9
  call void @_ZN4ncnn15kanna_rotate_c2EPKhiiiPhiiii(ptr noundef %15, i32 noundef %16, i32 noundef %17, i32 noundef %19, ptr noundef %20, i32 noundef %21, i32 noundef %22, i32 noundef %24, i32 noundef %25)
  ret void
}

; Function Attrs: mustprogress uwtable
define hidden void @_ZN4ncnn15kanna_rotate_c1EPKhiiPhiii(ptr noundef %0, i32 noundef %1, i32 noundef %2, ptr noundef %3, i32 noundef %4, i32 noundef %5, i32 noundef %6) #0 {
  %8 = alloca ptr, align 8
  %9 = alloca i32, align 4
  %10 = alloca i32, align 4
  %11 = alloca ptr, align 8
  %12 = alloca i32, align 4
  %13 = alloca i32, align 4
  %14 = alloca i32, align 4
  store ptr %0, ptr %8, align 8, !tbaa !4
  store i32 %1, ptr %9, align 4, !tbaa !9
  store i32 %2, ptr %10, align 4, !tbaa !9
  store ptr %3, ptr %11, align 8, !tbaa !4
  store i32 %4, ptr %12, align 4, !tbaa !9
  store i32 %5, ptr %13, align 4, !tbaa !9
  store i32 %6, ptr %14, align 4, !tbaa !9
  %15 = load ptr, ptr %8, align 8, !tbaa !4
  %16 = load i32, ptr %9, align 4, !tbaa !9
  %17 = load i32, ptr %10, align 4, !tbaa !9
  %18 = load i32, ptr %9, align 4, !tbaa !9
  %19 = load ptr, ptr %11, align 8, !tbaa !4
  %20 = load i32, ptr %12, align 4, !tbaa !9
  %21 = load i32, ptr %13, align 4, !tbaa !9
  %22 = load i32, ptr %12, align 4, !tbaa !9
  %23 = load i32, ptr %14, align 4, !tbaa !9
  call void @_ZN4ncnn15kanna_rotate_c1EPKhiiiPhiiii(ptr noundef %15, i32 noundef %16, i32 noundef %17, i32 noundef %18, ptr noundef %19, i32 noundef %20, i32 noundef %21, i32 noundef %22, i32 noundef %23)
  ret void
}

; Function Attrs: mustprogress uwtable
define hidden void @_ZN4ncnn21kanna_rotate_yuv420spEPKhiiPhiii(ptr noundef %0, i32 noundef %1, i32 noundef %2, ptr noundef %3, i32 noundef %4, i32 noundef %5, i32 noundef %6) #0 {
  %8 = alloca ptr, align 8
  %9 = alloca i32, align 4
  %10 = alloca i32, align 4
  %11 = alloca ptr, align 8
  %12 = alloca i32, align 4
  %13 = alloca i32, align 4
  %14 = alloca i32, align 4
  %15 = alloca ptr, align 8
  %16 = alloca ptr, align 8
  %17 = alloca ptr, align 8
  %18 = alloca ptr, align 8
  store ptr %0, ptr %8, align 8, !tbaa !4
  store i32 %1, ptr %9, align 4, !tbaa !9
  store i32 %2, ptr %10, align 4, !tbaa !9
  store ptr %3, ptr %11, align 8, !tbaa !4
  store i32 %4, ptr %12, align 4, !tbaa !9
  store i32 %5, ptr %13, align 4, !tbaa !9
  store i32 %6, ptr %14, align 4, !tbaa !9
  call void @llvm.lifetime.start.p0(i64 8, ptr %15) #3
  %19 = load ptr, ptr %8, align 8, !tbaa !4
  store ptr %19, ptr %15, align 8, !tbaa !4
  call void @llvm.lifetime.start.p0(i64 8, ptr %16) #3
  %20 = load ptr, ptr %11, align 8, !tbaa !4
  store ptr %20, ptr %16, align 8, !tbaa !4
  %21 = load ptr, ptr %15, align 8, !tbaa !4
  %22 = load i32, ptr %9, align 4, !tbaa !9
  %23 = load i32, ptr %10, align 4, !tbaa !9
  %24 = load ptr, ptr %16, align 8, !tbaa !4
  %25 = load i32, ptr %12, align 4, !tbaa !9
  %26 = load i32, ptr %13, align 4, !tbaa !9
  %27 = load i32, ptr %14, align 4, !tbaa !9
  call void @_ZN4ncnn15kanna_rotate_c1EPKhiiPhiii(ptr noundef %21, i32 noundef %22, i32 noundef %23, ptr noundef %24, i32 noundef %25, i32 noundef %26, i32 noundef %27)
  call void @llvm.lifetime.start.p0(i64 8, ptr %17) #3
  %28 = load ptr, ptr %8, align 8, !tbaa !4
  %29 = load i32, ptr %9, align 4, !tbaa !9
  %30 = load i32, ptr %10, align 4, !tbaa !9
  %31 = mul nsw i32 %29, %30
  %32 = sext i32 %31 to i64
  %33 = getelementptr inbounds i8, ptr %28, i64 %32
  store ptr %33, ptr %17, align 8, !tbaa !4
  call void @llvm.lifetime.start.p0(i64 8, ptr %18) #3
  %34 = load ptr, ptr %11, align 8, !tbaa !4
  %35 = load i32, ptr %12, align 4, !tbaa !9
  %36 = load i32, ptr %13, align 4, !tbaa !9
  %37 = mul nsw i32 %35, %36
  %38 = sext i32 %37 to i64
  %39 = getelementptr inbounds i8, ptr %34, i64 %38
  store ptr %39, ptr %18, align 8, !tbaa !4
  %40 = load ptr, ptr %17, align 8, !tbaa !4
  %41 = load i32, ptr %9, align 4, !tbaa !9
  %42 = sdiv i32 %41, 2
  %43 = load i32, ptr %10, align 4, !tbaa !9
  %44 = sdiv i32 %43, 2
  %45 = load ptr, ptr %18, align 8, !tbaa !4
  %46 = load i32, ptr %12, align 4, !tbaa !9
  %47 = sdiv i32 %46, 2
  %48 = load i32, ptr %13, align 4, !tbaa !9
  %49 = sdiv i32 %48, 2
  %50 = load i32, ptr %14, align 4, !tbaa !9
  call void @_ZN4ncnn15kanna_rotate_c2EPKhiiPhiii(ptr noundef %40, i32 noundef %42, i32 noundef %44, ptr noundef %45, i32 noundef %47, i32 noundef %49, i32 noundef %50)
  call void @llvm.lifetime.end.p0(i64 8, ptr %18) #3
  call void @llvm.lifetime.end.p0(i64 8, ptr %17) #3
  call void @llvm.lifetime.end.p0(i64 8, ptr %16) #3
  call void @llvm.lifetime.end.p0(i64 8, ptr %15) #3
  ret void
}