; Function Attrs: mustprogress nofree norecurse nosync nounwind memory(argmem: readwrite) uwtable
define hidden void @_ZN4ncnn21kanna_rotate_yuv420spEPKhiiPhiii(ptr noundef %0, i32 noundef %1, i32 noundef %2, ptr noundef %3, i32 noundef %4, i32 noundef %5, i32 noundef %6) local_unnamed_addr #0 {
  tail call void @_ZN4ncnn15kanna_rotate_c1EPKhiiiPhiiii(ptr noundef readonly %0, i32 noundef %1, i32 noundef %2, i32 noundef %1, ptr noundef %3, i32 noundef %4, i32 noundef %5, i32 noundef %4, i32 noundef %6)
  %8 = mul nsw i32 %2, %1
  %9 = sext i32 %8 to i64
  %10 = getelementptr inbounds i8, ptr %0, i64 %9
  %11 = mul nsw i32 %5, %4
  %12 = sext i32 %11 to i64
  %13 = getelementptr inbounds i8, ptr %3, i64 %12
  %14 = sdiv i32 %1, 2
  %15 = sdiv i32 %2, 2
  %16 = sdiv i32 %4, 2
  %17 = sdiv i32 %5, 2
  %18 = shl nsw i32 %14, 1
  %19 = shl nsw i32 %16, 1
  tail call void @_ZN4ncnn15kanna_rotate_c2EPKhiiiPhiiii(ptr noundef %10, i32 noundef %14, i32 noundef %15, i32 noundef %18, ptr noundef %13, i32 noundef %16, i32 noundef %17, i32 noundef %19, i32 noundef %6)
  ret void
}